; Function Attrs: nounwind uwtable
define range(i32 -1094995529, 536870912) i32 @av_vorbis_parse_frame_flags(ptr noundef %0, ptr noundef readonly captures(none) %1, i32 noundef %2, ptr noundef captures(address_is_null) %3) local_unnamed_addr #0 {
  %5 = getelementptr inbounds nuw i8, ptr %0, i64 12
  %6 = load i32, ptr %5, align 4, !tbaa !4
  %7 = icmp ne i32 %6, 0
  %8 = icmp sgt i32 %2, 0
  %or.cond = and i1 %8, %7
  br i1 %or.cond, label %9, label %.thread

9:                                                ; preds = %4
  %10 = getelementptr inbounds nuw i8, ptr %0, i64 24
  %11 = load i32, ptr %10, align 8, !tbaa !11
  %12 = load i8, ptr %1, align 1, !tbaa !12
  %13 = zext i8 %12 to i32
  %14 = and i32 %13, 1
  %.not = icmp eq i32 %14, 0
  br i1 %.not, label %28, label %15

15:                                               ; preds = %9
  %.not45 = icmp eq ptr %3, null
  br i1 %.not45, label %27, label %16

16:                                               ; preds = %15
  switch i8 %12, label %26 [
    i8 1, label %17
    i8 3, label %20
    i8 5, label %23
  ]

17:                                               ; preds = %16
  %18 = load i32, ptr %3, align 4, !tbaa !13
  %19 = or i32 %18, 1
  store i32 %19, ptr %3, align 4, !tbaa !13
  br label %.thread

20:                                               ; preds = %16
  %21 = load i32, ptr %3, align 4, !tbaa !13
  %22 = or i32 %21, 2
  store i32 %22, ptr %3, align 4, !tbaa !13
  br label %.thread

23:                                               ; preds = %16
  %24 = load i32, ptr %3, align 4, !tbaa !13
  %25 = or i32 %24, 4
  store i32 %25, ptr %3, align 4, !tbaa !13
  br label %.thread

26:                                               ; preds = %16
  tail call void (ptr, i32, ptr, ...) @av_log(ptr noundef nonnull %0, i32 noundef 40, ptr noundef nonnull @.str, i32 noundef %13) #6
  br label %.thread

27:                                               ; preds = %15
  tail call void (ptr, i32, ptr, ...) @av_log(ptr noundef nonnull %0, i32 noundef 16, ptr noundef nonnull @.str.1) #6
  br label %.thread

28:                                               ; preds = %9
  %29 = getelementptr inbounds nuw i8, ptr %0, i64 284
  %30 = load i32, ptr %29, align 4, !tbaa !14
  %31 = icmp eq i32 %30, 1
  br i1 %31, label %37, label %32

32:                                               ; preds = %28
  %33 = getelementptr inbounds nuw i8, ptr %0, i64 288
  %34 = load i32, ptr %33, align 8, !tbaa !15
  %35 = and i32 %34, %13
  %36 = lshr exact i32 %35, 1
  br label %37

37:                                               ; preds = %28, %32
  %.040 = phi i32 [ %36, %32 ], [ 0, %28 ]
  %.not43 = icmp slt i32 %.040, %30
  br i1 %.not43, label %39, label %38

38:                                               ; preds = %37
  tail call void (ptr, i32, ptr, ...) @av_log(ptr noundef nonnull %0, i32 noundef 16, ptr noundef nonnull @.str.2) #6
  br label %.thread

39:                                               ; preds = %37
  %40 = getelementptr inbounds nuw i8, ptr %0, i64 28
  %41 = zext nneg i32 %.040 to i64
  %42 = getelementptr inbounds nuw [64 x i32], ptr %40, i64 0, i64 %41
  %43 = load i32, ptr %42, align 4, !tbaa !13
  %.not44 = icmp eq i32 %43, 0
  br i1 %.not44, label %53, label %44

44:                                               ; preds = %39
  %45 = getelementptr inbounds nuw i8, ptr %0, i64 292
  %46 = load i32, ptr %45, align 4, !tbaa !16
  %47 = and i32 %46, %13
  %48 = icmp ne i32 %47, 0
  %49 = getelementptr inbounds nuw i8, ptr %0, i64 16
  %50 = zext i1 %48 to i64
  %51 = getelementptr inbounds nuw [2 x i32], ptr %49, i64 0, i64 %50
  %52 = load i32, ptr %51, align 4, !tbaa !13
  br label %53

53:                                               ; preds = %44, %39
  %.037 = phi i32 [ %52, %44 ], [ %11, %39 ]
  %54 = getelementptr inbounds nuw i8, ptr %0, i64 16
  %55 = sext i32 %43 to i64
  %56 = getelementptr inbounds [2 x i32], ptr %54, i64 0, i64 %55
  %57 = load i32, ptr %56, align 4, !tbaa !13
  %58 = add nsw i32 %57, %.037
  %59 = ashr i32 %58, 2
  store i32 %57, ptr %10, align 8, !tbaa !11
  br label %.thread

.thread:                                          ; preds = %17, %23, %26, %20, %38, %27, %53, %4
  %.1 = phi i32 [ 0, %4 ], [ %59, %53 ], [ 0, %17 ], [ 0, %23 ], [ 0, %26 ], [ 0, %20 ], [ -1094995529, %38 ], [ -1094995529, %27 ]
  ret i32 %.1
}